
out/main.o:     file format elf64-littleriscv


Disassembly of section .text:

0000000000000000 <multiply>:
   0:	00050793          	mv	a5,a0
bin:00000000000001010000011110010011
funct3:000
rs1:01010
rd:01111
imm:000000000000
opcode:0010011
   4:	00000513          	li	a0,0
bin:00000000000000000000010100010011
funct3:000
rs1:00000
rd:01010
imm:000000000000
opcode:0010011
   8:	0200006f          	j	28 <.L2>
bin:00000010000000000000000001101111
rd:00000
imm:00000000000000010000
opcode:1101111
000000000000000c <.L3>:
   c:	00e5053b          	addw	a0,a0,a4
bin:00000000111001010000010100111011
funct7:0000000
funct3:000
rs1:01010
rs2:01110
rd:01010
opcode:0111011
  10:	03051513          	slli	a0,a0,0x30
bin:00000011000001010001010100010011
funct6:000000
funct3:001
rs1:01010
shamt:110000
rd:01010
opcode:0010011
  14:	03055513          	srli	a0,a0,0x30
bin:00000011000001010101010100010011
funct6:000000
funct3:101
rs1:01010
shamt:110000
rd:01010
opcode:0010011
  18:	0015d593          	srli	a1,a1,0x1
bin:00000000000101011101010110010011
funct6:000000
funct3:101
rs1:01011
shamt:000001
rd:01011
opcode:0010011
  1c:	0017979b          	slliw	a5,a5,0x1
bin:00000000000101111001011110011011
funct6:000000
funct3:001
rs1:01111
shamt:000001
rd:01111
opcode:0011011
  20:	03079793          	slli	a5,a5,0x30
bin:00000011000001111001011110010011
funct6:000000
funct3:001
rs1:01111
shamt:110000
rd:01111
opcode:0010011
  24:	0307d793          	srli	a5,a5,0x30
bin:00000011000001111101011110010011
funct6:000000
funct3:101
rs1:01111
shamt:110000
rd:01111
opcode:0010011

0000000000000028 <.L2>:
  28:	00058a63          	beqz	a1,3c <.L6>
bin:00000000000001011000101001100011
funct3:000
rs1:01011
rs2:00000
imm:000000001010
opcode:1100011
  2c:	0015f713          	andi	a4,a1,1
bin:00000000000101011111011100010011
funct3:111
rs1:01011
rd:01110
imm:000000000001
opcode:0010011
  30:	fc070ee3          	beqz	a4,c <.L3>
bin:11111100000001110000111011100011
funct3:000
rs1:01110
rs2:00000
imm:111111101110
opcode:1100011
  34:	00078713          	mv	a4,a5
bin:00000000000001111000011100010011
funct3:000
rs1:01111
rd:01110
imm:000000000000
opcode:0010011
  38:	fd5ff06f          	j	c <.L3>
bin:11111101010111111111000001101111
rd:00000
imm:11111111111111101010
opcode:1101111

000000000000003c <.L6>:
  3c:	00008067          	ret
bin:00000000000000001000000001100111
funct3:000
rs1:00001
rd:00000
imm:000000000000
opcode:1100111

0000000000000040 <main>:
  40:	ff010113          	addi	sp,sp,-16
bin:11111111000000010000000100010011
funct3:000
rs1:00010
rd:00010
imm:111111110000
opcode:0010011
  44:	00113423          	sd	ra,8(sp)
bin:00000000000100010011010000100011
funct3:011
rs1:00010
rs2:00001
imm:000000001000
opcode:0100011
  48:	01c00593          	li	a1,28
bin:00000001110000000000010110010011
funct3:000
rs1:00000
rd:01011
imm:000000011100
opcode:0010011
  4c:	01c00513          	li	a0,28
bin:00000001110000000000010100010011
funct3:000
rs1:00000
rd:01010
imm:000000011100
opcode:0010011
  50:	00000097          	auipc	ra,0x0
bin:00000000000000000000000010010111
rd:00001
imm:00000000000000000000
opcode:0010111
  54:	000080e7          	jalr	ra 50 <main+0x10>
bin:00000000000000001000000011100111
funct3:000
rs1:00001
rd:00001
imm:000000000000
opcode:1100111

  58:	01c00593          	li	a1,28
bin:00000001110000000000010110010011
funct3:000
rs1:00000
rd:01011
imm:000000011100
opcode:0010011
  5c:	00000097          	auipc	ra,0x0
bin:00000000000000000000000010010111
rd:00001
imm:00000000000000000000
opcode:0010111
  60:	000080e7          	jalr	ra 5c <main+0x1c>
bin:00000000000000001000000011100111
funct3:000
rs1:00001
rd:00001
imm:000000000000
opcode:1100111
  64:	0005059b          	sext.w	a1,a0
bin:00000000000001010000010110011011
funct3:000
rs1:01010
rd:01011
imm:000000000000
opcode:0011011
  68:	00000517          	auipc	a0,0x0
bin:00000000000000000000010100010111
rd:01010
imm:00000000000000000000
opcode:0010111
  6c:	00050513          	mv	a0,a0
bin:00000000000001010000010100010011
funct3:000
rs1:01010
rd:01010
imm:000000000000
opcode:0010011
  70:	00000097          	auipc	ra,0x0
bin:00000000000000000000000010010111
rd:00001
imm:00000000000000000000
opcode:0010111
  74:	000080e7          	jalr	ra 70 <main+0x30>
bin:00000000000000001000000011100111
funct3:000
rs1:00001
rd:00001
imm:000000000000
opcode:1100111
  78:	00000513          	li	a0,0
bin:00000000000000000000010100010011
funct3:000
rs1:00000
rd:01010
imm:000000000000
opcode:0010011
  7c:	00813083          	ld	ra,8(sp)
bin:00000000100000010011000010000011
funct3:011
rs1:00010
rd:00001
imm:000000001000
opcode:0000011
  80:	01010113          	addi	sp,sp,16
bin:00000001000000010000000100010011
funct3:000
rs1:00010
rd:00010
imm:000000010000
opcode:0010011
  84:	00008067          	ret
bin:00000000000000001000000001100111
funct3:000
rs1:00001
rd:00000
imm:000000000000
opcode:1100111